; Function Attrs: mustprogress uwtable
define dso_local void @_ZN3net19SourceAddressTokensC2Ev(ptr noundef nonnull align 8 dereferenceable(56) %this) unnamed_addr #1 align 2 personality ptr @__gxx_personality_v0 {
invoke.cont:
  store ptr getelementptr inbounds ({ [18 x ptr] }, ptr @_ZTVN3net19SourceAddressTokensE, i64 0, i32 0, i64 2), ptr %this, align 8
  %_arena_ptr_ = getelementptr inbounds i8, ptr %this, i64 16
  store ptr null, ptr %_arena_ptr_, align 8
  %tokens_ = getelementptr inbounds i8, ptr %this, i64 32
  tail call void @llvm.memset.p0.i64(ptr noundef nonnull align 8 dereferenceable(24) %tokens_, i8 0, i64 24, i1 false)
  %call.i2 = invoke noundef nonnull align 8 dereferenceable(32) ptr @_ZN6google8protobuf8internal14GetEmptyStringB5cxx11Ev()
          to label %invoke.cont3 unwind label %lpad2

invoke.cont3:                                     ; preds = %invoke.cont
  %_cached_size_.i = getelementptr inbounds i8, ptr %this, i64 28
  store i32 0, ptr %_cached_size_.i, align 4
  %_unknown_fields_.i = getelementptr inbounds i8, ptr %this, i64 8
  %0 = load ptr, ptr @_ZN6google8protobuf8internal13empty_string_B5cxx11E, align 8
  store ptr %0, ptr %_unknown_fields_.i, align 8
  %_has_bits_.i = getelementptr inbounds i8, ptr %this, i64 24
  store i32 0, ptr %_has_bits_.i, align 8
  ret void

lpad2:                                            ; preds = %invoke.cont
  %1 = landingpad { ptr, i32 }
          cleanup
  tail call void @_ZN6google8protobuf16RepeatedPtrFieldIN3net18SourceAddressTokenEED2Ev(ptr noundef nonnull align 8 dereferenceable(24) %tokens_) #14
  tail call void @_ZN6google8protobuf11MessageLiteD2Ev(ptr noundef nonnull align 8 dereferenceable(8) %this) #14
  resume { ptr, i32 } %1
}